; Function Attrs: nounwind uwtable
define hidden i32 @drsuapi_dissect_struct_DsReplicaMetaDataCtr(ptr noundef %0, i32 noundef %1, ptr noundef %2, ptr noundef %3, ptr noundef %4, ptr noundef %5, i32 noundef %6, i32 %7) local_unnamed_addr #0 {
  %9 = getelementptr inbounds nuw i8, ptr %4, i64 28
  %10 = load i32, ptr %9, align 4
  %.not = icmp ne i32 %10, 0
  %11 = and i32 %1, 7
  %.not32 = icmp eq i32 %11, 0
  %or.cond = or i1 %.not32, %.not
  %12 = and i32 %1, -8
  %13 = add i32 %12, 8
  %.0 = select i1 %or.cond, i32 %1, i32 %13
  %.not33 = icmp eq ptr %3, null
  br i1 %.not33, label %18, label %14

14:                                               ; preds = %8
  %15 = tail call ptr @proto_tree_add_item(ptr noundef nonnull %3, i32 noundef %6, ptr noundef %0, i32 noundef %.0, i32 noundef -1, i32 noundef 0) #5
  %16 = load i32, ptr @ett_drsuapi_drsuapi_DsReplicaMetaDataCtr, align 4
  %17 = tail call ptr @proto_item_add_subtree(ptr noundef %15, i32 noundef %16) #5
  br label %18

18:                                               ; preds = %14, %8
  %.030 = phi ptr [ %15, %14 ], [ null, %8 ]
  %.029 = phi ptr [ %17, %14 ], [ null, %8 ]
  %19 = load i32, ptr @hf_drsuapi_drsuapi_DsReplicaMetaDataCtr_count, align 4
  %20 = tail call i32 @PIDL_dissect_uint32(ptr noundef %0, i32 noundef %.0, ptr noundef %2, ptr noundef %.029, ptr noundef nonnull %4, ptr noundef %5, i32 noundef %19, i32 noundef 0) #5
  %21 = tail call i32 @dissect_ndr_ucarray(ptr noundef %0, i32 noundef %20, ptr noundef %2, ptr noundef %.029, ptr noundef nonnull %4, ptr noundef %5, ptr noundef nonnull @drsuapi_dissect_element_DsReplicaMetaDataCtr_meta_data_) #5
  %22 = sub i32 %21, %.0
  tail call void @proto_item_set_len(ptr noundef %.030, i32 noundef %22) #5
  %23 = getelementptr inbounds nuw i8, ptr %4, i64 72
  %24 = load ptr, ptr %23, align 8
  %25 = getelementptr inbounds nuw i8, ptr %24, i64 96
  %26 = load i32, ptr %25, align 8
  %27 = and i32 %26, 1
  %.not34 = icmp eq i32 %27, 0
  br i1 %.not34, label %34, label %28

28:                                               ; preds = %18
  %29 = load i32, ptr %9, align 4
  %.not35 = icmp ne i32 %29, 0
  %30 = and i32 %21, 7
  %.not36 = icmp eq i32 %30, 0
  %or.cond37 = or i1 %.not36, %.not35
  br i1 %or.cond37, label %34, label %31

31:                                               ; preds = %28
  %32 = and i32 %21, -8
  %33 = add i32 %32, 8
  br label %34

34:                                               ; preds = %28, %31, %18
  %.1 = phi i32 [ %21, %28 ], [ %33, %31 ], [ %21, %18 ]
  ret i32 %.1
}